target datalayout = "e-m:e-p270:32:32-p271:32:32-p272:64:64-i64:64-i128:128-f80:128-n8:16:32:64-S128"
target triple = "x86_64-pc-linux-gnu"

%"struct.faiss::IndexIVFAdditiveQuantizerFastScan" = type { %"struct.faiss::IndexIVFFastScan", ptr, i8, i32, i64 }
%"struct.faiss::IndexIVFFastScan" = type { %"struct.faiss::IndexIVF.base", i32, i64, i64, i64, i64, i32, i32, i32, i64, ptr, ptr }
%"struct.faiss::IndexIVF.base" = type <{ %"struct.faiss::Index.base", [4 x i8], %"struct.faiss::IndexIVFInterface", ptr, i8, [7 x i8], i64, i32, i32, %"struct.faiss::DirectMap", i8 }>
%"struct.faiss::Index.base" = type <{ ptr, i32, [4 x i8], i64, i8, i8, [2 x i8], i32, float }>
%"struct.faiss::IndexIVFInterface" = type { ptr, %"struct.faiss::Level1Quantizer", i64, i64 }
%"struct.faiss::Level1Quantizer" = type { ptr, i64, i8, i8, [6 x i8], %"struct.faiss::ClusteringParameters", ptr }
%"struct.faiss::ClusteringParameters" = type <{ i32, i32, i8, i8, i8, i8, i8, [3 x i8], i32, i32, i32, [4 x i8], i64, i8, i8, [6 x i8] }>
%"struct.faiss::DirectMap" = type { i32, %"class.std::vector", %"class.std::unordered_map" }
%"class.std::vector" = type { %"struct.std::_Vector_base" }
%"struct.std::_Vector_base" = type { %"struct.std::_Vector_base<long, std::allocator<long>>::_Vector_impl" }
%"struct.std::_Vector_base<long, std::allocator<long>>::_Vector_impl" = type { %"struct.std::_Vector_base<long, std::allocator<long>>::_Vector_impl_data" }
%"struct.std::_Vector_base<long, std::allocator<long>>::_Vector_impl_data" = type { ptr, ptr, ptr }
%"class.std::unordered_map" = type { %"class.std::_Hashtable" }
%"class.std::_Hashtable" = type { ptr, i64, %"struct.std::__detail::_Hash_node_base", i64, %"struct.std::__detail::_Prime_rehash_policy", ptr }
%"struct.std::__detail::_Hash_node_base" = type { ptr }
%"struct.std::__detail::_Prime_rehash_policy" = type { float, i64 }
%"struct.faiss::Index" = type <{ ptr, i32, [4 x i8], i64, i8, i8, [2 x i8], i32, float, [4 x i8] }>
%"class.std::vector.13" = type { %"struct.std::_Vector_base.14" }
%"struct.std::_Vector_base.14" = type { %"struct.std::_Vector_base<float, std::allocator<float>>::_Vector_impl" }
%"struct.std::_Vector_base<float, std::allocator<float>>::_Vector_impl" = type { %"struct.std::_Vector_base<float, std::allocator<float>>::_Vector_impl_data" }
%"struct.std::_Vector_base<float, std::allocator<float>>::_Vector_impl_data" = type { ptr, ptr, ptr }
%"class.std::vector.18" = type { %"struct.std::_Vector_base.19" }
%"struct.std::_Vector_base.19" = type { %"struct.std::_Vector_base<unsigned char, std::allocator<unsigned char>>::_Vector_impl" }
%"struct.std::_Vector_base<unsigned char, std::allocator<unsigned char>>::_Vector_impl" = type { %"struct.std::_Vector_base<unsigned char, std::allocator<unsigned char>>::_Vector_impl_data" }
%"struct.std::_Vector_base<unsigned char, std::allocator<unsigned char>>::_Vector_impl_data" = type { ptr, ptr, ptr }
%"struct.faiss::Quantizer" = type { ptr, i64, i64 }
%"class.std::vector.8" = type { %"struct.std::_Vector_base.9" }
%"struct.std::_Vector_base.9" = type { %"struct.std::_Vector_base<unsigned long, std::allocator<unsigned long>>::_Vector_impl" }
%"struct.std::_Vector_base<unsigned long, std::allocator<unsigned long>>::_Vector_impl" = type { %"struct.std::_Vector_base<unsigned long, std::allocator<unsigned long>>::_Vector_impl_data" }
%"struct.std::_Vector_base<unsigned long, std::allocator<unsigned long>>::_Vector_impl_data" = type { ptr, ptr, ptr }
%"struct.faiss::IndexFlat1D" = type { %"struct.faiss::IndexFlatL2", i8, %"class.std::vector" }
%"struct.faiss::IndexFlatL2" = type { %"struct.faiss::IndexFlat", %"class.std::vector.13" }
%"struct.faiss::IndexFlat" = type { %"struct.faiss::IndexFlatCodes" }
%"struct.faiss::IndexFlatCodes" = type { %"struct.faiss::Index.base", i64, %"class.std::vector.18" }
%"struct.faiss::AdditiveQuantizer.base" = type <{ %"struct.faiss::Quantizer", i64, %"class.std::vector.8", %"class.std::vector.13", %"class.std::vector.8", i64, i64, i64, i8, i8, i8, [5 x i8], %"class.std::vector.13", %"struct.faiss::IndexFlat1D", %"class.std::vector.13", %"class.std::vector.13", i64, i32, float, float }>
%"struct.faiss::IndexIVFProductLocalSearchQuantizerFastScan" = type { %"struct.faiss::IndexIVFAdditiveQuantizerFastScan", %"struct.faiss::ProductLocalSearchQuantizer" }
%"struct.faiss::ProductLocalSearchQuantizer" = type { %"struct.faiss::ProductAdditiveQuantizer" }
%"struct.faiss::ProductAdditiveQuantizer" = type { %"struct.faiss::AdditiveQuantizer.base", i64, %"class.std::vector.29" }
%"class.std::vector.29" = type { %"struct.std::_Vector_base.30" }
%"struct.std::_Vector_base.30" = type { %"struct.std::_Vector_base<faiss::AdditiveQuantizer *, std::allocator<faiss::AdditiveQuantizer *>>::_Vector_impl" }
%"struct.std::_Vector_base<faiss::AdditiveQuantizer *, std::allocator<faiss::AdditiveQuantizer *>>::_Vector_impl" = type { %"struct.std::_Vector_base<faiss::AdditiveQuantizer *, std::allocator<faiss::AdditiveQuantizer *>>::_Vector_impl_data" }
%"struct.std::_Vector_base<faiss::AdditiveQuantizer *, std::allocator<faiss::AdditiveQuantizer *>>::_Vector_impl_data" = type { ptr, ptr, ptr }

; Function Attrs: mustprogress nounwind uwtable
define void @_ZN5faiss33IndexIVFAdditiveQuantizerFastScanD2Ev(ptr noundef nonnull align 8 dereferenceable(368) %0) unnamed_addr #0 align 2 {
  %2 = alloca ptr, align 8
  store ptr %0, ptr %2, align 8, !tbaa !4
  %3 = load ptr, ptr %2, align 8
  call void @_ZN5faiss16IndexIVFFastScanD2Ev(ptr noundef nonnull align 8 dereferenceable(344) %3) #18
  ret void
}

; Function Attrs: mustprogress uwtable
define void @_ZN5faiss33IndexIVFAdditiveQuantizerFastScanC2Ev(ptr noundef nonnull align 8 dereferenceable(368) %0) unnamed_addr #2 align 2 {
  %2 = alloca ptr, align 8
  store ptr %0, ptr %2, align 8, !tbaa !4
  %3 = load ptr, ptr %2, align 8
  call void @_ZN5faiss16IndexIVFFastScanC2Ev(ptr noundef nonnull align 8 dereferenceable(344) %3)
  store ptr getelementptr inbounds inrange(-16, 288) ({ [38 x ptr], [6 x ptr] }, ptr @_ZTVN5faiss33IndexIVFAdditiveQuantizerFastScanE, i32 0, i32 0, i32 2), ptr %3, align 8, !tbaa !60
  %4 = getelementptr inbounds i8, ptr %3, i64 40
  store ptr getelementptr inbounds inrange(-16, 32) ({ [38 x ptr], [6 x ptr] }, ptr @_ZTVN5faiss33IndexIVFAdditiveQuantizerFastScanE, i32 0, i32 1, i32 2), ptr %4, align 8, !tbaa !60
  %5 = getelementptr inbounds nuw %"struct.faiss::IndexIVFAdditiveQuantizerFastScan", ptr %3, i32 0, i32 2
  store i8 0, ptr %5, align 8, !tbaa !19
  %6 = getelementptr inbounds nuw %"struct.faiss::IndexIVFAdditiveQuantizerFastScan", ptr %3, i32 0, i32 3
  store i32 1, ptr %6, align 4, !tbaa !48
  %7 = getelementptr inbounds nuw %"struct.faiss::IndexIVFFastScan", ptr %3, i32 0, i32 1
  store i32 0, ptr %7, align 4, !tbaa !179
  %8 = getelementptr inbounds nuw %"struct.faiss::IndexIVFFastScan", ptr %3, i32 0, i32 5
  store i64 0, ptr %8, align 8, !tbaa !149
  %9 = getelementptr inbounds nuw %"struct.faiss::IndexIVFAdditiveQuantizerFastScan", ptr %3, i32 0, i32 1
  store ptr null, ptr %9, align 8, !tbaa !65
  %10 = getelementptr inbounds nuw %"struct.faiss::Index", ptr %3, i32 0, i32 5
  store i8 0, ptr %10, align 1, !tbaa !146
  ret void
}

; Function Attrs: mustprogress uwtable
define void @_ZN5faiss43IndexIVFProductLocalSearchQuantizerFastScanC2Ev(ptr noundef nonnull align 8 dereferenceable(760) %0) unnamed_addr #2 align 2 personality ptr @__gxx_personality_v0 {
  %2 = alloca ptr, align 8
  %3 = alloca ptr, align 8
  %4 = alloca i32, align 4
  store ptr %0, ptr %2, align 8, !tbaa !288
  %5 = load ptr, ptr %2, align 8
  call void @_ZN5faiss33IndexIVFAdditiveQuantizerFastScanC2Ev(ptr noundef nonnull align 8 dereferenceable(368) %5)
  store ptr getelementptr inbounds inrange(-16, 288) ({ [38 x ptr], [6 x ptr] }, ptr @_ZTVN5faiss43IndexIVFProductLocalSearchQuantizerFastScanE, i32 0, i32 0, i32 2), ptr %5, align 8, !tbaa !60
  %6 = getelementptr inbounds i8, ptr %5, i64 40
  store ptr getelementptr inbounds inrange(-16, 32) ({ [38 x ptr], [6 x ptr] }, ptr @_ZTVN5faiss43IndexIVFProductLocalSearchQuantizerFastScanE, i32 0, i32 1, i32 2), ptr %6, align 8, !tbaa !60
  %7 = getelementptr inbounds nuw %"struct.faiss::IndexIVFProductLocalSearchQuantizerFastScan", ptr %5, i32 0, i32 1
  invoke void @_ZN5faiss27ProductLocalSearchQuantizerC1Ev(ptr noundef nonnull align 8 dereferenceable(392) %7)
          to label %8 unwind label %11

8:                                                ; preds = %1
  %9 = getelementptr inbounds nuw %"struct.faiss::IndexIVFProductLocalSearchQuantizerFastScan", ptr %5, i32 0, i32 1
  %10 = getelementptr inbounds nuw %"struct.faiss::IndexIVFAdditiveQuantizerFastScan", ptr %5, i32 0, i32 1
  store ptr %9, ptr %10, align 8, !tbaa !65
  ret void

11:                                               ; preds = %1
  %12 = landingpad { ptr, i32 }
          cleanup
  %13 = extractvalue { ptr, i32 } %12, 0
  store ptr %13, ptr %3, align 8
  %14 = extractvalue { ptr, i32 } %12, 1
  store i32 %14, ptr %4, align 4
  call void @_ZN5faiss33IndexIVFAdditiveQuantizerFastScanD2Ev(ptr noundef nonnull align 8 dereferenceable(368) %5) #18
  br label %15

15:                                               ; preds = %11
  %16 = load ptr, ptr %3, align 8
  %17 = load i32, ptr %4, align 4
  %18 = insertvalue { ptr, i32 } poison, ptr %16, 0
  %19 = insertvalue { ptr, i32 } %18, i32 %17, 1
  resume { ptr, i32 } %19
}